(dp1
S'failed'
p2
(lp3
S'1'
asS'source_names'
p4
(lp5
S'test/serverless_mock_test.py:TestServerlessMock.test_run_hello_function_response'
p6
asS'ids'
p7
(dp8
I1
(S'/Users/zhangyuan/code/github/serverless-mock-python/test/serverless_mock_test.py'
S'serverless_mock_test'
p9
S'TestServerlessMock.test_run_hello_function_response'
tp10
ss.